target datalayout = "e-m:e-p270:32:32-p271:32:32-p272:64:64-i64:64-i128:128-f80:128-n8:16:32:64-S128"
target triple = "x86_64-pc-linux-gnu"

%struct._zend_refcounted_h = type { i32, %union.anon }
%union.anon = type { i32 }
%struct._zend_string = type { %struct._zend_refcounted_h, i64, i64, [1 x i8] }

@zend_empty_string = external global ptr, align 8

; Function Attrs: nounwind uwtable
define hidden ptr @dom_node_concatenated_name_helper(i64 noundef %0, ptr noundef %1, i64 noundef %2, ptr noundef %3) #0 {
  %5 = alloca ptr, align 8
  %6 = alloca i32, align 4
  %7 = alloca i64, align 8
  %8 = alloca i8, align 1
  %9 = alloca ptr, align 8
  %10 = alloca ptr, align 8
  %11 = alloca i64, align 8
  %12 = alloca ptr, align 8
  %13 = alloca i64, align 8
  %14 = alloca ptr, align 8
  %15 = alloca ptr, align 8
  store i64 %0, ptr %11, align 8
  store ptr %1, ptr %12, align 8
  store i64 %2, ptr %13, align 8
  store ptr %3, ptr %14, align 8
  %16 = load i64, ptr %13, align 8
  %17 = icmp ugt i64 %16, 9223372036854775790
  br i1 %17, label %21, label %18

18:                                               ; preds = %4
  %19 = load i64, ptr %11, align 8
  %20 = icmp ugt i64 %19, 9223372036854775790
  br label %21

21:                                               ; preds = %18, %4
  %22 = phi i1 [ true, %4 ], [ %20, %18 ]
  %23 = xor i1 %22, true
  %24 = xor i1 %23, true
  %25 = zext i1 %24 to i32
  %26 = sext i32 %25 to i64
  %27 = icmp ne i64 %26, 0
  br i1 %27, label %28, label %30

28:                                               ; preds = %21
  %29 = load ptr, ptr @zend_empty_string, align 8
  store ptr %29, ptr %10, align 8
  br label %485

30:                                               ; preds = %21
  %31 = load i64, ptr %13, align 8
  %32 = add i64 %31, 1
  %33 = load i64, ptr %11, align 8
  %34 = add i64 %32, %33
  store i64 %34, ptr %7, align 8
  store i8 0, ptr %8, align 1
  %35 = load i8, ptr %8, align 1
  %36 = trunc i8 %35 to i1
  br i1 %36, label %37, label %45

37:                                               ; preds = %30
  %38 = load i64, ptr %7, align 8
  %39 = add i64 24, %38
  %40 = add i64 %39, 1
  %41 = add i64 %40, 8
  %42 = sub i64 %41, 1
  %43 = and i64 %42, -8
  %44 = call noalias ptr @__zend_malloc(i64 noundef %43) #8
  br label %449

45:                                               ; preds = %30
  %46 = load i64, ptr %7, align 8
  %47 = add i64 24, %46
  %48 = add i64 %47, 1
  %49 = add i64 %48, 8
  %50 = sub i64 %49, 1
  %51 = and i64 %50, -8
  %52 = call i1 @llvm.is.constant.i64(i64 %51)
  br i1 %52, label %53, label %439

53:                                               ; preds = %45
  %54 = load i64, ptr %7, align 8
  %55 = add i64 24, %54
  %56 = add i64 %55, 1
  %57 = add i64 %56, 8
  %58 = sub i64 %57, 1
  %59 = and i64 %58, -8
  %60 = icmp ule i64 %59, 8
  br i1 %60, label %61, label %63

61:                                               ; preds = %53
  %62 = call noalias ptr @_emalloc_8() #9
  br label %437

63:                                               ; preds = %53
  %64 = load i64, ptr %7, align 8
  %65 = add i64 24, %64
  %66 = add i64 %65, 1
  %67 = add i64 %66, 8
  %68 = sub i64 %67, 1
  %69 = and i64 %68, -8
  %70 = icmp ule i64 %69, 16
  br i1 %70, label %71, label %73

71:                                               ; preds = %63
  %72 = call noalias ptr @_emalloc_16() #9
  br label %435

73:                                               ; preds = %63
  %74 = load i64, ptr %7, align 8
  %75 = add i64 24, %74
  %76 = add i64 %75, 1
  %77 = add i64 %76, 8
  %78 = sub i64 %77, 1
  %79 = and i64 %78, -8
  %80 = icmp ule i64 %79, 24
  br i1 %80, label %81, label %83

81:                                               ; preds = %73
  %82 = call noalias ptr @_emalloc_24() #9
  br label %433

83:                                               ; preds = %73
  %84 = load i64, ptr %7, align 8
  %85 = add i64 24, %84
  %86 = add i64 %85, 1
  %87 = add i64 %86, 8
  %88 = sub i64 %87, 1
  %89 = and i64 %88, -8
  %90 = icmp ule i64 %89, 32
  br i1 %90, label %91, label %93

91:                                               ; preds = %83
  %92 = call noalias ptr @_emalloc_32() #9
  br label %431

93:                                               ; preds = %83
  %94 = load i64, ptr %7, align 8
  %95 = add i64 24, %94
  %96 = add i64 %95, 1
  %97 = add i64 %96, 8
  %98 = sub i64 %97, 1
  %99 = and i64 %98, -8
  %100 = icmp ule i64 %99, 40
  br i1 %100, label %101, label %103

101:                                              ; preds = %93
  %102 = call noalias ptr @_emalloc_40() #9
  br label %429

103:                                              ; preds = %93
  %104 = load i64, ptr %7, align 8
  %105 = add i64 24, %104
  %106 = add i64 %105, 1
  %107 = add i64 %106, 8
  %108 = sub i64 %107, 1
  %109 = and i64 %108, -8
  %110 = icmp ule i64 %109, 48
  br i1 %110, label %111, label %113

111:                                              ; preds = %103
  %112 = call noalias ptr @_emalloc_48() #9
  br label %427

113:                                              ; preds = %103
  %114 = load i64, ptr %7, align 8
  %115 = add i64 24, %114
  %116 = add i64 %115, 1
  %117 = add i64 %116, 8
  %118 = sub i64 %117, 1
  %119 = and i64 %118, -8
  %120 = icmp ule i64 %119, 56
  br i1 %120, label %121, label %123

121:                                              ; preds = %113
  %122 = call noalias ptr @_emalloc_56() #9
  br label %425

123:                                              ; preds = %113
  %124 = load i64, ptr %7, align 8
  %125 = add i64 24, %124
  %126 = add i64 %125, 1
  %127 = add i64 %126, 8
  %128 = sub i64 %127, 1
  %129 = and i64 %128, -8
  %130 = icmp ule i64 %129, 64
  br i1 %130, label %131, label %133

131:                                              ; preds = %123
  %132 = call noalias ptr @_emalloc_64() #9
  br label %423

133:                                              ; preds = %123
  %134 = load i64, ptr %7, align 8
  %135 = add i64 24, %134
  %136 = add i64 %135, 1
  %137 = add i64 %136, 8
  %138 = sub i64 %137, 1
  %139 = and i64 %138, -8
  %140 = icmp ule i64 %139, 80
  br i1 %140, label %141, label %143

141:                                              ; preds = %133
  %142 = call noalias ptr @_emalloc_80() #9
  br label %421

143:                                              ; preds = %133
  %144 = load i64, ptr %7, align 8
  %145 = add i64 24, %144
  %146 = add i64 %145, 1
  %147 = add i64 %146, 8
  %148 = sub i64 %147, 1
  %149 = and i64 %148, -8
  %150 = icmp ule i64 %149, 96
  br i1 %150, label %151, label %153

151:                                              ; preds = %143
  %152 = call noalias ptr @_emalloc_96() #9
  br label %419

153:                                              ; preds = %143
  %154 = load i64, ptr %7, align 8
  %155 = add i64 24, %154
  %156 = add i64 %155, 1
  %157 = add i64 %156, 8
  %158 = sub i64 %157, 1
  %159 = and i64 %158, -8
  %160 = icmp ule i64 %159, 112
  br i1 %160, label %161, label %163

161:                                              ; preds = %153
  %162 = call noalias ptr @_emalloc_112() #9
  br label %417

163:                                              ; preds = %153
  %164 = load i64, ptr %7, align 8
  %165 = add i64 24, %164
  %166 = add i64 %165, 1
  %167 = add i64 %166, 8
  %168 = sub i64 %167, 1
  %169 = and i64 %168, -8
  %170 = icmp ule i64 %169, 128
  br i1 %170, label %171, label %173

171:                                              ; preds = %163
  %172 = call noalias ptr @_emalloc_128() #9
  br label %415

173:                                              ; preds = %163
  %174 = load i64, ptr %7, align 8
  %175 = add i64 24, %174
  %176 = add i64 %175, 1
  %177 = add i64 %176, 8
  %178 = sub i64 %177, 1
  %179 = and i64 %178, -8
  %180 = icmp ule i64 %179, 160
  br i1 %180, label %181, label %183

181:                                              ; preds = %173
  %182 = call noalias ptr @_emalloc_160() #9
  br label %413

183:                                              ; preds = %173
  %184 = load i64, ptr %7, align 8
  %185 = add i64 24, %184
  %186 = add i64 %185, 1
  %187 = add i64 %186, 8
  %188 = sub i64 %187, 1
  %189 = and i64 %188, -8
  %190 = icmp ule i64 %189, 192
  br i1 %190, label %191, label %193

191:                                              ; preds = %183
  %192 = call noalias ptr @_emalloc_192() #9
  br label %411

193:                                              ; preds = %183
  %194 = load i64, ptr %7, align 8
  %195 = add i64 24, %194
  %196 = add i64 %195, 1
  %197 = add i64 %196, 8
  %198 = sub i64 %197, 1
  %199 = and i64 %198, -8
  %200 = icmp ule i64 %199, 224
  br i1 %200, label %201, label %203

201:                                              ; preds = %193
  %202 = call noalias ptr @_emalloc_224() #9
  br label %409

203:                                              ; preds = %193
  %204 = load i64, ptr %7, align 8
  %205 = add i64 24, %204
  %206 = add i64 %205, 1
  %207 = add i64 %206, 8
  %208 = sub i64 %207, 1
  %209 = and i64 %208, -8
  %210 = icmp ule i64 %209, 256
  br i1 %210, label %211, label %213

211:                                              ; preds = %203
  %212 = call noalias ptr @_emalloc_256() #9
  br label %407

213:                                              ; preds = %203
  %214 = load i64, ptr %7, align 8
  %215 = add i64 24, %214
  %216 = add i64 %215, 1
  %217 = add i64 %216, 8
  %218 = sub i64 %217, 1
  %219 = and i64 %218, -8
  %220 = icmp ule i64 %219, 320
  br i1 %220, label %221, label %223

221:                                              ; preds = %213
  %222 = call noalias ptr @_emalloc_320() #9
  br label %405

223:                                              ; preds = %213
  %224 = load i64, ptr %7, align 8
  %225 = add i64 24, %224
  %226 = add i64 %225, 1
  %227 = add i64 %226, 8
  %228 = sub i64 %227, 1
  %229 = and i64 %228, -8
  %230 = icmp ule i64 %229, 384
  br i1 %230, label %231, label %233

231:                                              ; preds = %223
  %232 = call noalias ptr @_emalloc_384() #9
  br label %403

233:                                              ; preds = %223
  %234 = load i64, ptr %7, align 8
  %235 = add i64 24, %234
  %236 = add i64 %235, 1
  %237 = add i64 %236, 8
  %238 = sub i64 %237, 1
  %239 = and i64 %238, -8
  %240 = icmp ule i64 %239, 448
  br i1 %240, label %241, label %243

241:                                              ; preds = %233
  %242 = call noalias ptr @_emalloc_448() #9
  br label %401

243:                                              ; preds = %233
  %244 = load i64, ptr %7, align 8
  %245 = add i64 24, %244
  %246 = add i64 %245, 1
  %247 = add i64 %246, 8
  %248 = sub i64 %247, 1
  %249 = and i64 %248, -8
  %250 = icmp ule i64 %249, 512
  br i1 %250, label %251, label %253

251:                                              ; preds = %243
  %252 = call noalias ptr @_emalloc_512() #9
  br label %399

253:                                              ; preds = %243
  %254 = load i64, ptr %7, align 8
  %255 = add i64 24, %254
  %256 = add i64 %255, 1
  %257 = add i64 %256, 8
  %258 = sub i64 %257, 1
  %259 = and i64 %258, -8
  %260 = icmp ule i64 %259, 640
  br i1 %260, label %261, label %263

261:                                              ; preds = %253
  %262 = call noalias ptr @_emalloc_640() #9
  br label %397

263:                                              ; preds = %253
  %264 = load i64, ptr %7, align 8
  %265 = add i64 24, %264
  %266 = add i64 %265, 1
  %267 = add i64 %266, 8
  %268 = sub i64 %267, 1
  %269 = and i64 %268, -8
  %270 = icmp ule i64 %269, 768
  br i1 %270, label %271, label %273

271:                                              ; preds = %263
  %272 = call noalias ptr @_emalloc_768() #9
  br label %395

273:                                              ; preds = %263
  %274 = load i64, ptr %7, align 8
  %275 = add i64 24, %274
  %276 = add i64 %275, 1
  %277 = add i64 %276, 8
  %278 = sub i64 %277, 1
  %279 = and i64 %278, -8
  %280 = icmp ule i64 %279, 896
  br i1 %280, label %281, label %283

281:                                              ; preds = %273
  %282 = call noalias ptr @_emalloc_896() #9
  br label %393

283:                                              ; preds = %273
  %284 = load i64, ptr %7, align 8
  %285 = add i64 24, %284
  %286 = add i64 %285, 1
  %287 = add i64 %286, 8
  %288 = sub i64 %287, 1
  %289 = and i64 %288, -8
  %290 = icmp ule i64 %289, 1024
  br i1 %290, label %291, label %293

291:                                              ; preds = %283
  %292 = call noalias ptr @_emalloc_1024() #9
  br label %391

293:                                              ; preds = %283
  %294 = load i64, ptr %7, align 8
  %295 = add i64 24, %294
  %296 = add i64 %295, 1
  %297 = add i64 %296, 8
  %298 = sub i64 %297, 1
  %299 = and i64 %298, -8
  %300 = icmp ule i64 %299, 1280
  br i1 %300, label %301, label %303

301:                                              ; preds = %293
  %302 = call noalias ptr @_emalloc_1280() #9
  br label %389

303:                                              ; preds = %293
  %304 = load i64, ptr %7, align 8
  %305 = add i64 24, %304
  %306 = add i64 %305, 1
  %307 = add i64 %306, 8
  %308 = sub i64 %307, 1
  %309 = and i64 %308, -8
  %310 = icmp ule i64 %309, 1536
  br i1 %310, label %311, label %313

311:                                              ; preds = %303
  %312 = call noalias ptr @_emalloc_1536() #9
  br label %387

313:                                              ; preds = %303
  %314 = load i64, ptr %7, align 8
  %315 = add i64 24, %314
  %316 = add i64 %315, 1
  %317 = add i64 %316, 8
  %318 = sub i64 %317, 1
  %319 = and i64 %318, -8
  %320 = icmp ule i64 %319, 1792
  br i1 %320, label %321, label %323

321:                                              ; preds = %313
  %322 = call noalias ptr @_emalloc_1792() #9
  br label %385

323:                                              ; preds = %313
  %324 = load i64, ptr %7, align 8
  %325 = add i64 24, %324
  %326 = add i64 %325, 1
  %327 = add i64 %326, 8
  %328 = sub i64 %327, 1
  %329 = and i64 %328, -8
  %330 = icmp ule i64 %329, 2048
  br i1 %330, label %331, label %333

331:                                              ; preds = %323
  %332 = call noalias ptr @_emalloc_2048() #9
  br label %383

333:                                              ; preds = %323
  %334 = load i64, ptr %7, align 8
  %335 = add i64 24, %334
  %336 = add i64 %335, 1
  %337 = add i64 %336, 8
  %338 = sub i64 %337, 1
  %339 = and i64 %338, -8
  %340 = icmp ule i64 %339, 2560
  br i1 %340, label %341, label %343

341:                                              ; preds = %333
  %342 = call noalias ptr @_emalloc_2560() #9
  br label %381

343:                                              ; preds = %333
  %344 = load i64, ptr %7, align 8
  %345 = add i64 24, %344
  %346 = add i64 %345, 1
  %347 = add i64 %346, 8
  %348 = sub i64 %347, 1
  %349 = and i64 %348, -8
  %350 = icmp ule i64 %349, 3072
  br i1 %350, label %351, label %353

351:                                              ; preds = %343
  %352 = call noalias ptr @_emalloc_3072() #9
  br label %379

353:                                              ; preds = %343
  %354 = load i64, ptr %7, align 8
  %355 = add i64 24, %354
  %356 = add i64 %355, 1
  %357 = add i64 %356, 8
  %358 = sub i64 %357, 1
  %359 = and i64 %358, -8
  %360 = icmp ule i64 %359, 2093056
  br i1 %360, label %361, label %369

361:                                              ; preds = %353
  %362 = load i64, ptr %7, align 8
  %363 = add i64 24, %362
  %364 = add i64 %363, 1
  %365 = add i64 %364, 8
  %366 = sub i64 %365, 1
  %367 = and i64 %366, -8
  %368 = call noalias ptr @_emalloc_large(i64 noundef %367) #8
  br label %377

369:                                              ; preds = %353
  %370 = load i64, ptr %7, align 8
  %371 = add i64 24, %370
  %372 = add i64 %371, 1
  %373 = add i64 %372, 8
  %374 = sub i64 %373, 1
  %375 = and i64 %374, -8
  %376 = call noalias ptr @_emalloc_huge(i64 noundef %375) #8
  br label %377

377:                                              ; preds = %369, %361
  %378 = phi ptr [ %368, %361 ], [ %376, %369 ]
  br label %379

379:                                              ; preds = %377, %351
  %380 = phi ptr [ %352, %351 ], [ %378, %377 ]
  br label %381

381:                                              ; preds = %379, %341
  %382 = phi ptr [ %342, %341 ], [ %380, %379 ]
  br label %383

383:                                              ; preds = %381, %331
  %384 = phi ptr [ %332, %331 ], [ %382, %381 ]
  br label %385

385:                                              ; preds = %383, %321
  %386 = phi ptr [ %322, %321 ], [ %384, %383 ]
  br label %387

387:                                              ; preds = %385, %311
  %388 = phi ptr [ %312, %311 ], [ %386, %385 ]
  br label %389

389:                                              ; preds = %387, %301
  %390 = phi ptr [ %302, %301 ], [ %388, %387 ]
  br label %391

391:                                              ; preds = %389, %291
  %392 = phi ptr [ %292, %291 ], [ %390, %389 ]
  br label %393

393:                                              ; preds = %391, %281
  %394 = phi ptr [ %282, %281 ], [ %392, %391 ]
  br label %395

395:                                              ; preds = %393, %271
  %396 = phi ptr [ %272, %271 ], [ %394, %393 ]
  br label %397

397:                                              ; preds = %395, %261
  %398 = phi ptr [ %262, %261 ], [ %396, %395 ]
  br label %399

399:                                              ; preds = %397, %251
  %400 = phi ptr [ %252, %251 ], [ %398, %397 ]
  br label %401

401:                                              ; preds = %399, %241
  %402 = phi ptr [ %242, %241 ], [ %400, %399 ]
  br label %403

403:                                              ; preds = %401, %231
  %404 = phi ptr [ %232, %231 ], [ %402, %401 ]
  br label %405

405:                                              ; preds = %403, %221
  %406 = phi ptr [ %222, %221 ], [ %404, %403 ]
  br label %407

407:                                              ; preds = %405, %211
  %408 = phi ptr [ %212, %211 ], [ %406, %405 ]
  br label %409

409:                                              ; preds = %407, %201
  %410 = phi ptr [ %202, %201 ], [ %408, %407 ]
  br label %411

411:                                              ; preds = %409, %191
  %412 = phi ptr [ %192, %191 ], [ %410, %409 ]
  br label %413

413:                                              ; preds = %411, %181
  %414 = phi ptr [ %182, %181 ], [ %412, %411 ]
  br label %415

415:                                              ; preds = %413, %171
  %416 = phi ptr [ %172, %171 ], [ %414, %413 ]
  br label %417

417:                                              ; preds = %415, %161
  %418 = phi ptr [ %162, %161 ], [ %416, %415 ]
  br label %419

419:                                              ; preds = %417, %151
  %420 = phi ptr [ %152, %151 ], [ %418, %417 ]
  br label %421

421:                                              ; preds = %419, %141
  %422 = phi ptr [ %142, %141 ], [ %420, %419 ]
  br label %423

423:                                              ; preds = %421, %131
  %424 = phi ptr [ %132, %131 ], [ %422, %421 ]
  br label %425

425:                                              ; preds = %423, %121
  %426 = phi ptr [ %122, %121 ], [ %424, %423 ]
  br label %427

427:                                              ; preds = %425, %111
  %428 = phi ptr [ %112, %111 ], [ %426, %425 ]
  br label %429

429:                                              ; preds = %427, %101
  %430 = phi ptr [ %102, %101 ], [ %428, %427 ]
  br label %431

431:                                              ; preds = %429, %91
  %432 = phi ptr [ %92, %91 ], [ %430, %429 ]
  br label %433

433:                                              ; preds = %431, %81
  %434 = phi ptr [ %82, %81 ], [ %432, %431 ]
  br label %435

435:                                              ; preds = %433, %71
  %436 = phi ptr [ %72, %71 ], [ %434, %433 ]
  br label %437

437:                                              ; preds = %435, %61
  %438 = phi ptr [ %62, %61 ], [ %436, %435 ]
  br label %447

439:                                              ; preds = %45
  %440 = load i64, ptr %7, align 8
  %441 = add i64 24, %440
  %442 = add i64 %441, 1
  %443 = add i64 %442, 8
  %444 = sub i64 %443, 1
  %445 = and i64 %444, -8
  %446 = call noalias ptr @_emalloc(i64 noundef %445) #8
  br label %447

447:                                              ; preds = %439, %437
  %448 = phi ptr [ %438, %437 ], [ %446, %439 ]
  br label %449

449:                                              ; preds = %447, %37
  %450 = phi ptr [ %44, %37 ], [ %448, %447 ]
  store ptr %450, ptr %9, align 8
  %451 = load ptr, ptr %9, align 8
  store ptr %451, ptr %5, align 8
  store i32 1, ptr %6, align 4
  %452 = load i32, ptr %6, align 4
  %453 = load ptr, ptr %5, align 8
  store i32 %452, ptr %453, align 4
  %454 = load i8, ptr %8, align 1
  %455 = trunc i8 %454 to i1
  %456 = select i1 %455, i32 128, i32 0
  %457 = or i32 22, %456
  %458 = load ptr, ptr %9, align 8
  %459 = getelementptr inbounds %struct._zend_refcounted_h, ptr %458, i32 0, i32 1
  store i32 %457, ptr %459, align 4
  %460 = load ptr, ptr %9, align 8
  %461 = getelementptr inbounds %struct._zend_string, ptr %460, i32 0, i32 1
  store i64 0, ptr %461, align 8
  %462 = load i64, ptr %7, align 8
  %463 = load ptr, ptr %9, align 8
  %464 = getelementptr inbounds %struct._zend_string, ptr %463, i32 0, i32 2
  store i64 %462, ptr %464, align 8
  %465 = load ptr, ptr %9, align 8
  store ptr %465, ptr %15, align 8
  %466 = load ptr, ptr %15, align 8
  %467 = getelementptr inbounds %struct._zend_string, ptr %466, i32 0, i32 3
  %468 = getelementptr inbounds [1 x i8], ptr %467, i64 0, i64 0
  %469 = load ptr, ptr %14, align 8
  %470 = load i64, ptr %13, align 8
  call void @llvm.memcpy.p0.p0.i64(ptr align 8 %468, ptr align 1 %469, i64 %470, i1 false)
  %471 = load ptr, ptr %15, align 8
  %472 = getelementptr inbounds %struct._zend_string, ptr %471, i32 0, i32 3
  %473 = load i64, ptr %13, align 8
  %474 = getelementptr inbounds [1 x i8], ptr %472, i64 0, i64 %473
  store i8 58, ptr %474, align 1
  %475 = load ptr, ptr %15, align 8
  %476 = getelementptr inbounds %struct._zend_string, ptr %475, i32 0, i32 3
  %477 = getelementptr inbounds [1 x i8], ptr %476, i64 0, i64 0
  %478 = load i64, ptr %13, align 8
  %479 = getelementptr inbounds i8, ptr %477, i64 %478
  %480 = getelementptr inbounds i8, ptr %479, i64 1
  %481 = load ptr, ptr %12, align 8
  %482 = load i64, ptr %11, align 8
  %483 = add i64 %482, 1
  call void @llvm.memcpy.p0.p0.i64(ptr align 1 %480, ptr align 1 %481, i64 %483, i1 false)
  %484 = load ptr, ptr %15, align 8
  store ptr %484, ptr %10, align 8
  br label %485

485:                                              ; preds = %449, %28
  %486 = load ptr, ptr %10, align 8
  ret ptr %486
}