; Function Attrs: nounwind uwtable
define hidden ptr @dom_node_concatenated_name_helper(i64 noundef %0, ptr nocapture noundef readonly %1, i64 noundef %2, ptr nocapture noundef readonly %3) local_unnamed_addr #0 {
  %5 = icmp ugt i64 %2, 9223372036854775790
  %6 = icmp ugt i64 %0, 9223372036854775790
  %7 = or i1 %6, %5
  br i1 %7, label %8, label %10

8:                                                ; preds = %4
  %9 = load ptr, ptr @zend_empty_string, align 8
  br label %22

10:                                               ; preds = %4
  %11 = add nuw nsw i64 %0, 1
  %12 = add nuw i64 %11, %2
  %13 = and i64 %12, -8
  %14 = add nuw i64 %13, 32
  %15 = tail call noalias ptr @_emalloc(i64 noundef %14) #10
  store i32 1, ptr %15, align 4
  %16 = getelementptr inbounds i8, ptr %15, i64 4
  store i32 22, ptr %16, align 4
  %17 = getelementptr inbounds i8, ptr %15, i64 8
  store i64 0, ptr %17, align 8
  %18 = getelementptr inbounds i8, ptr %15, i64 16
  store i64 %12, ptr %18, align 8
  %19 = getelementptr inbounds i8, ptr %15, i64 24
  tail call void @llvm.memcpy.p0.p0.i64(ptr nonnull align 8 %19, ptr align 1 %3, i64 %2, i1 false)
  %20 = getelementptr inbounds [1 x i8], ptr %19, i64 0, i64 %2
  store i8 58, ptr %20, align 1
  %21 = getelementptr inbounds i8, ptr %20, i64 1
  tail call void @llvm.memcpy.p0.p0.i64(ptr noundef nonnull align 1 dereferenceable(1) %21, ptr noundef nonnull align 1 dereferenceable(1) %1, i64 %11, i1 false)
  br label %22

22:                                               ; preds = %10, %8
  %.0 = phi ptr [ %9, %8 ], [ %15, %10 ]
  ret ptr %.0
}